target datalayout = "e-m:e-p270:32:32-p271:32:32-p272:64:64-i64:64-i128:128-f80:128-n8:16:32:64-S128"
target triple = "x86_64-pc-linux-gnu"

%struct.stbi__write_context = type { ptr, ptr, [64 x i8], i32 }

@.str = private unnamed_addr constant [3 x i8] c"wb\00", align 1

; Function Attrs: nounwind uwtable
define void @stbi__start_write_callbacks(ptr noundef %0, ptr noundef %1, ptr noundef %2) #0 {
  %4 = alloca ptr, align 8
  %5 = alloca ptr, align 8
  %6 = alloca ptr, align 8
  store ptr %0, ptr %4, align 8, !tbaa !7
  store ptr %1, ptr %5, align 8, !tbaa !7
  store ptr %2, ptr %6, align 8, !tbaa !7
  %7 = load ptr, ptr %5, align 8, !tbaa !7
  %8 = load ptr, ptr %4, align 8, !tbaa !7
  %9 = getelementptr inbounds nuw %struct.stbi__write_context, ptr %8, i32 0, i32 0
  store ptr %7, ptr %9, align 8, !tbaa !9
  %10 = load ptr, ptr %6, align 8, !tbaa !7
  %11 = load ptr, ptr %4, align 8, !tbaa !7
  %12 = getelementptr inbounds nuw %struct.stbi__write_context, ptr %11, i32 0, i32 1
  store ptr %10, ptr %12, align 8, !tbaa !11
  ret void
}

; Function Attrs: nounwind uwtable
define ptr @stbiw__fopen(ptr noundef %0, ptr noundef %1) #0 {
  %3 = alloca ptr, align 8
  %4 = alloca ptr, align 8
  %5 = alloca ptr, align 8
  store ptr %0, ptr %3, align 8, !tbaa !12
  store ptr %1, ptr %4, align 8, !tbaa !12
  call void @llvm.lifetime.start.p0(i64 8, ptr %5) #11
  %6 = load ptr, ptr %3, align 8, !tbaa !12
  %7 = load ptr, ptr %4, align 8, !tbaa !12
  %8 = call noalias ptr @fopen(ptr noundef %6, ptr noundef %7)
  store ptr %8, ptr %5, align 8, !tbaa !14
  %9 = load ptr, ptr %5, align 8, !tbaa !14
  call void @llvm.lifetime.end.p0(i64 8, ptr %5) #11
  ret ptr %9
}

; Function Attrs: nounwind uwtable
define void @stbi__end_write_file(ptr noundef %0) #0 {
  %2 = alloca ptr, align 8
  store ptr %0, ptr %2, align 8, !tbaa !7
  %3 = load ptr, ptr %2, align 8, !tbaa !7
  %4 = getelementptr inbounds nuw %struct.stbi__write_context, ptr %3, i32 0, i32 1
  %5 = load ptr, ptr %4, align 8, !tbaa !11
  %6 = call i32 @fclose(ptr noundef %5)
  ret void
}

; Function Attrs: nounwind uwtable
define i32 @stbi__start_write_file(ptr noundef %0, ptr noundef %1) #0 {
  %3 = alloca ptr, align 8
  %4 = alloca ptr, align 8
  %5 = alloca ptr, align 8
  store ptr %0, ptr %3, align 8, !tbaa !7
  store ptr %1, ptr %4, align 8, !tbaa !12
  call void @llvm.lifetime.start.p0(i64 8, ptr %5) #11
  %6 = load ptr, ptr %4, align 8, !tbaa !12
  %7 = call ptr @stbiw__fopen(ptr noundef %6, ptr noundef @.str)
  store ptr %7, ptr %5, align 8, !tbaa !14
  %8 = load ptr, ptr %3, align 8, !tbaa !7
  %9 = load ptr, ptr %5, align 8, !tbaa !14
  call void @stbi__start_write_callbacks(ptr noundef %8, ptr noundef @stbi__stdio_write, ptr noundef %9)
  %10 = load ptr, ptr %5, align 8, !tbaa !14
  %11 = icmp ne ptr %10, null
  %12 = zext i1 %11 to i32
  call void @llvm.lifetime.end.p0(i64 8, ptr %5) #11
  ret i32 %12
}

; Function Attrs: nounwind uwtable
define i32 @stbi_write_jpg(ptr noundef %0, i32 noundef %1, i32 noundef %2, i32 noundef %3, ptr noundef %4, i32 noundef %5) #0 {
  %7 = alloca i32, align 4
  %8 = alloca ptr, align 8
  %9 = alloca i32, align 4
  %10 = alloca i32, align 4
  %11 = alloca i32, align 4
  %12 = alloca ptr, align 8
  %13 = alloca i32, align 4
  %14 = alloca %struct.stbi__write_context, align 8
  %15 = alloca i32, align 4
  %16 = alloca i32, align 4
  store ptr %0, ptr %8, align 8, !tbaa !12
  store i32 %1, ptr %9, align 4, !tbaa !3
  store i32 %2, ptr %10, align 4, !tbaa !3
  store i32 %3, ptr %11, align 4, !tbaa !3
  store ptr %4, ptr %12, align 8, !tbaa !7
  store i32 %5, ptr %13, align 4, !tbaa !3
  call void @llvm.lifetime.start.p0(i64 88, ptr %14) #11
  call void @llvm.memset.p0.i64(ptr align 8 %14, i8 0, i64 88, i1 false)
  %17 = load ptr, ptr %8, align 8, !tbaa !12
  %18 = call i32 @stbi__start_write_file(ptr noundef %14, ptr noundef %17)
  %19 = icmp ne i32 %18, 0
  br i1 %19, label %20, label %28

20:                                               ; preds = %6
  call void @llvm.lifetime.start.p0(i64 4, ptr %15) #11
  %21 = load i32, ptr %9, align 4, !tbaa !3
  %22 = load i32, ptr %10, align 4, !tbaa !3
  %23 = load i32, ptr %11, align 4, !tbaa !3
  %24 = load ptr, ptr %12, align 8, !tbaa !7
  %25 = load i32, ptr %13, align 4, !tbaa !3
  %26 = call i32 @stbi_write_jpg_core(ptr noundef %14, i32 noundef %21, i32 noundef %22, i32 noundef %23, ptr noundef %24, i32 noundef %25)
  store i32 %26, ptr %15, align 4, !tbaa !3
  call void @stbi__end_write_file(ptr noundef %14)
  %27 = load i32, ptr %15, align 4, !tbaa !3
  store i32 %27, ptr %7, align 4
  store i32 1, ptr %16, align 4
  call void @llvm.lifetime.end.p0(i64 4, ptr %15) #11
  br label %29

28:                                               ; preds = %6
  store i32 0, ptr %7, align 4
  store i32 1, ptr %16, align 4
  br label %29

29:                                               ; preds = %28, %20
  call void @llvm.lifetime.end.p0(i64 88, ptr %14) #11
  %30 = load i32, ptr %7, align 4
  ret i32 %30
}